target datalayout = "e-m:e-p270:32:32-p271:32:32-p272:64:64-i64:64-i128:128-f80:128-n8:16:32:64-S128"
target triple = "x86_64-pc-linux-gnu"

%struct._zval_struct = type { %union._zend_value, %union.anon, %union.anon.2 }
%union._zend_value = type { i64 }
%union.anon = type { i32 }
%union.anon.2 = type { i32 }
%struct._zend_refcounted_h = type { i32, %union.anon.6 }
%union.anon.6 = type { i32 }
%struct._zend_object = type { %struct._zend_refcounted_h, i32, i32, ptr, ptr, ptr, [1 x %struct._zval_struct] }
%struct._pdo_dbh_t = type { ptr, ptr, ptr, ptr, i32, ptr, i64, [6 x i8], i32, i32, i32, ptr, i64, i32, [2 x ptr], ptr, ptr, %struct._zval_struct, ptr, ptr, i32 }
%struct.pdo_dbh_methods = type { ptr, ptr, ptr, ptr, ptr, ptr, ptr, ptr, ptr, ptr, ptr, ptr, ptr, ptr, ptr, ptr, ptr }
%struct.anon.0 = type { i8, i8, %union.anon.1 }
%union.anon.1 = type { i16 }
%struct._zend_refcounted = type { %struct._zend_refcounted_h }

; Function Attrs: alwaysinline nounwind uwtable
define internal i32 @zend_gc_delref(ptr noundef %0) #3 {
  %2 = alloca ptr, align 8
  store ptr %0, ptr %2, align 8, !tbaa !142
  %3 = load ptr, ptr %2, align 8, !tbaa !142
  %4 = getelementptr inbounds nuw %struct._zend_refcounted_h, ptr %3, i32 0, i32 0
  %5 = load i32, ptr %4, align 4, !tbaa !144
  %6 = icmp ugt i32 %5, 0
  call void @llvm.assume(i1 %6)
  br label %7

7:                                                ; preds = %1
  br label %8

8:                                                ; preds = %7
  %9 = load ptr, ptr %2, align 8, !tbaa !142
  %10 = getelementptr inbounds nuw %struct._zend_refcounted_h, ptr %9, i32 0, i32 0
  %11 = load i32, ptr %10, align 4, !tbaa !144
  %12 = add i32 %11, -1
  store i32 %12, ptr %10, align 4, !tbaa !144
  ret i32 %12
}

; Function Attrs: alwaysinline nounwind uwtable
define internal zeroext i8 @zval_get_type(ptr noundef %0) #3 {
  %2 = alloca ptr, align 8
  store ptr %0, ptr %2, align 8, !tbaa !13
  %3 = load ptr, ptr %2, align 8, !tbaa !13
  %4 = getelementptr inbounds nuw %struct._zval_struct, ptr %3, i32 0, i32 1
  %5 = getelementptr inbounds nuw %struct.anon.0, ptr %4, i32 0, i32 0
  %6 = load i8, ptr %5, align 8, !tbaa !15
  ret i8 %6
}

; Function Attrs: alwaysinline nounwind uwtable
define internal void @zend_object_release(ptr noundef %0) #3 {
  %2 = alloca ptr, align 8
  store ptr %0, ptr %2, align 8, !tbaa !62
  %3 = load ptr, ptr %2, align 8, !tbaa !62
  %4 = getelementptr inbounds nuw %struct._zend_object, ptr %3, i32 0, i32 0
  %5 = call i32 @zend_gc_delref(ptr noundef %4)
  %6 = icmp eq i32 %5, 0
  br i1 %6, label %7, label %9

7:                                                ; preds = %1
  %8 = load ptr, ptr %2, align 8, !tbaa !62
  call void @zend_objects_store_del(ptr noundef %8)
  br label %25

9:                                                ; preds = %1
  %10 = load ptr, ptr %2, align 8, !tbaa !62
  %11 = getelementptr inbounds nuw %struct._zend_refcounted, ptr %10, i32 0, i32 0
  %12 = getelementptr inbounds nuw %struct._zend_refcounted_h, ptr %11, i32 0, i32 1
  %13 = load i32, ptr %12, align 4, !tbaa !15
  %14 = and i32 %13, -1008
  %15 = icmp eq i32 %14, 0
  %16 = xor i1 %15, true
  %17 = xor i1 %16, true
  %18 = zext i1 %17 to i32
  %19 = sext i32 %18 to i64
  %20 = call i64 @llvm.expect.i64(i64 %19, i64 0)
  %21 = icmp ne i64 %20, 0
  br i1 %21, label %22, label %24

22:                                               ; preds = %9
  %23 = load ptr, ptr %2, align 8, !tbaa !62
  call void @gc_possible_root(ptr noundef %23)
  br label %24

24:                                               ; preds = %22, %9
  br label %25

25:                                               ; preds = %24, %7
  ret void
}

; Function Attrs: nounwind uwtable
define internal void @dbh_free(ptr noundef %0, i1 noundef zeroext %1) #0 {
  %3 = alloca ptr, align 8
  %4 = alloca i8, align 1
  %5 = alloca i32, align 4
  %6 = alloca i32, align 4
  store ptr %0, ptr %3, align 8, !tbaa !63
  %7 = zext i1 %1 to i8
  store i8 %7, ptr %4, align 1, !tbaa !18
  call void @llvm.lifetime.start.p0(i64 4, ptr %5) #14
  %8 = load ptr, ptr %3, align 8, !tbaa !63
  %9 = getelementptr inbounds nuw %struct._pdo_dbh_t, ptr %8, i32 0, i32 18
  %10 = load ptr, ptr %9, align 8, !tbaa !133
  %11 = icmp ne ptr %10, null
  br i1 %11, label %12, label %20

12:                                               ; preds = %2
  %13 = load ptr, ptr %3, align 8, !tbaa !63
  %14 = getelementptr inbounds nuw %struct._pdo_dbh_t, ptr %13, i32 0, i32 19
  %15 = load ptr, ptr %14, align 8, !tbaa !134
  call void @zend_object_release(ptr noundef %15)
  %16 = load ptr, ptr %3, align 8, !tbaa !63
  %17 = getelementptr inbounds nuw %struct._pdo_dbh_t, ptr %16, i32 0, i32 19
  store ptr null, ptr %17, align 8, !tbaa !134
  %18 = load ptr, ptr %3, align 8, !tbaa !63
  %19 = getelementptr inbounds nuw %struct._pdo_dbh_t, ptr %18, i32 0, i32 18
  store ptr null, ptr %19, align 8, !tbaa !133
  br label %20

20:                                               ; preds = %12, %2
  %21 = load ptr, ptr %3, align 8, !tbaa !63
  %22 = getelementptr inbounds nuw %struct._pdo_dbh_t, ptr %21, i32 0, i32 4
  %23 = load i32, ptr %22, align 8
  %24 = and i32 %23, 1
  %25 = icmp ne i32 %24, 0
  br i1 %25, label %26, label %37

26:                                               ; preds = %20
  %27 = load i8, ptr %4, align 1, !tbaa !18, !range !20, !noundef !21
  %28 = trunc i8 %27 to i1
  br i1 %28, label %36, label %29

29:                                               ; preds = %26
  %30 = load ptr, ptr %3, align 8, !tbaa !63
  %31 = getelementptr inbounds nuw %struct._pdo_dbh_t, ptr %30, i32 0, i32 13
  %32 = load i32, ptr %31, align 8, !tbaa !85
  %33 = add i32 %32, -1
  store i32 %33, ptr %31, align 8, !tbaa !85
  %34 = icmp ne i32 %33, 0
  br i1 %34, label %35, label %36

35:                                               ; preds = %29
  store i32 1, ptr %6, align 4
  br label %192

36:                                               ; preds = %29, %26
  br label %37

37:                                               ; preds = %36, %20
  %38 = load ptr, ptr %3, align 8, !tbaa !63
  %39 = getelementptr inbounds nuw %struct._pdo_dbh_t, ptr %38, i32 0, i32 0
  %40 = load ptr, ptr %39, align 8, !tbaa !69
  %41 = icmp ne ptr %40, null
  br i1 %41, label %42, label %49

42:                                               ; preds = %37
  %43 = load ptr, ptr %3, align 8, !tbaa !63
  %44 = getelementptr inbounds nuw %struct._pdo_dbh_t, ptr %43, i32 0, i32 0
  %45 = load ptr, ptr %44, align 8, !tbaa !69
  %46 = getelementptr inbounds nuw %struct.pdo_dbh_methods, ptr %45, i32 0, i32 0
  %47 = load ptr, ptr %46, align 8, !tbaa !211
  %48 = load ptr, ptr %3, align 8, !tbaa !63
  call void %47(ptr noundef %48)
  br label %49

49:                                               ; preds = %42, %37
  %50 = load ptr, ptr %3, align 8, !tbaa !63
  %51 = getelementptr inbounds nuw %struct._pdo_dbh_t, ptr %50, i32 0, i32 5
  %52 = load ptr, ptr %51, align 8, !tbaa !94
  %53 = icmp ne ptr %52, null
  br i1 %53, label %54, label %69

54:                                               ; preds = %49
  %55 = load ptr, ptr %3, align 8, !tbaa !63
  %56 = getelementptr inbounds nuw %struct._pdo_dbh_t, ptr %55, i32 0, i32 4
  %57 = load i32, ptr %56, align 8
  %58 = and i32 %57, 1
  %59 = icmp ne i32 %58, 0
  br i1 %59, label %60, label %64

60:                                               ; preds = %54
  %61 = load ptr, ptr %3, align 8, !tbaa !63
  %62 = getelementptr inbounds nuw %struct._pdo_dbh_t, ptr %61, i32 0, i32 5
  %63 = load ptr, ptr %62, align 8, !tbaa !94
  call void @free(ptr noundef %63) #14
  br label %68

64:                                               ; preds = %54
  %65 = load ptr, ptr %3, align 8, !tbaa !63
  %66 = getelementptr inbounds nuw %struct._pdo_dbh_t, ptr %65, i32 0, i32 5
  %67 = load ptr, ptr %66, align 8, !tbaa !94
  call void @_efree(ptr noundef %67)
  br label %68

68:                                               ; preds = %64, %60
  br label %69

69:                                               ; preds = %68, %49
  %70 = load ptr, ptr %3, align 8, !tbaa !63
  %71 = getelementptr inbounds nuw %struct._pdo_dbh_t, ptr %70, i32 0, i32 2
  %72 = load ptr, ptr %71, align 8, !tbaa !95
  %73 = icmp ne ptr %72, null
  br i1 %73, label %74, label %89

74:                                               ; preds = %69
  %75 = load ptr, ptr %3, align 8, !tbaa !63
  %76 = getelementptr inbounds nuw %struct._pdo_dbh_t, ptr %75, i32 0, i32 4
  %77 = load i32, ptr %76, align 8
  %78 = and i32 %77, 1
  %79 = icmp ne i32 %78, 0
  br i1 %79, label %80, label %84

80:                                               ; preds = %74
  %81 = load ptr, ptr %3, align 8, !tbaa !63
  %82 = getelementptr inbounds nuw %struct._pdo_dbh_t, ptr %81, i32 0, i32 2
  %83 = load ptr, ptr %82, align 8, !tbaa !95
  call void @free(ptr noundef %83) #14
  br label %88

84:                                               ; preds = %74
  %85 = load ptr, ptr %3, align 8, !tbaa !63
  %86 = getelementptr inbounds nuw %struct._pdo_dbh_t, ptr %85, i32 0, i32 2
  %87 = load ptr, ptr %86, align 8, !tbaa !95
  call void @_efree(ptr noundef %87)
  br label %88

88:                                               ; preds = %84, %80
  br label %89

89:                                               ; preds = %88, %69
  %90 = load ptr, ptr %3, align 8, !tbaa !63
  %91 = getelementptr inbounds nuw %struct._pdo_dbh_t, ptr %90, i32 0, i32 3
  %92 = load ptr, ptr %91, align 8, !tbaa !96
  %93 = icmp ne ptr %92, null
  br i1 %93, label %94, label %109

94:                                               ; preds = %89
  %95 = load ptr, ptr %3, align 8, !tbaa !63
  %96 = getelementptr inbounds nuw %struct._pdo_dbh_t, ptr %95, i32 0, i32 4
  %97 = load i32, ptr %96, align 8
  %98 = and i32 %97, 1
  %99 = icmp ne i32 %98, 0
  br i1 %99, label %100, label %104

100:                                              ; preds = %94
  %101 = load ptr, ptr %3, align 8, !tbaa !63
  %102 = getelementptr inbounds nuw %struct._pdo_dbh_t, ptr %101, i32 0, i32 3
  %103 = load ptr, ptr %102, align 8, !tbaa !96
  call void @free(ptr noundef %103) #14
  br label %108

104:                                              ; preds = %94
  %105 = load ptr, ptr %3, align 8, !tbaa !63
  %106 = getelementptr inbounds nuw %struct._pdo_dbh_t, ptr %105, i32 0, i32 3
  %107 = load ptr, ptr %106, align 8, !tbaa !96
  call void @_efree(ptr noundef %107)
  br label %108

108:                                              ; preds = %104, %100
  br label %109

109:                                              ; preds = %108, %89
  %110 = load ptr, ptr %3, align 8, !tbaa !63
  %111 = getelementptr inbounds nuw %struct._pdo_dbh_t, ptr %110, i32 0, i32 11
  %112 = load ptr, ptr %111, align 8, !tbaa !86
  %113 = icmp ne ptr %112, null
  br i1 %113, label %114, label %129

114:                                              ; preds = %109
  %115 = load ptr, ptr %3, align 8, !tbaa !63
  %116 = getelementptr inbounds nuw %struct._pdo_dbh_t, ptr %115, i32 0, i32 4
  %117 = load i32, ptr %116, align 8
  %118 = and i32 %117, 1
  %119 = icmp ne i32 %118, 0
  br i1 %119, label %120, label %124

120:                                              ; preds = %114
  %121 = load ptr, ptr %3, align 8, !tbaa !63
  %122 = getelementptr inbounds nuw %struct._pdo_dbh_t, ptr %121, i32 0, i32 11
  %123 = load ptr, ptr %122, align 8, !tbaa !86
  call void @free(ptr noundef %123) #14
  br label %128

124:                                              ; preds = %114
  %125 = load ptr, ptr %3, align 8, !tbaa !63
  %126 = getelementptr inbounds nuw %struct._pdo_dbh_t, ptr %125, i32 0, i32 11
  %127 = load ptr, ptr %126, align 8, !tbaa !86
  call void @_efree(ptr noundef %127)
  br label %128

128:                                              ; preds = %124, %120
  br label %129

129:                                              ; preds = %128, %109
  %130 = load ptr, ptr %3, align 8, !tbaa !63
  %131 = getelementptr inbounds nuw %struct._pdo_dbh_t, ptr %130, i32 0, i32 17
  %132 = call zeroext i8 @zval_get_type(ptr noundef %131)
  %133 = zext i8 %132 to i32
  %134 = icmp eq i32 %133, 0
  br i1 %134, label %138, label %135

135:                                              ; preds = %129
  %136 = load ptr, ptr %3, align 8, !tbaa !63
  %137 = getelementptr inbounds nuw %struct._pdo_dbh_t, ptr %136, i32 0, i32 17
  call void @zval_ptr_dtor(ptr noundef %137)
  br label %138

138:                                              ; preds = %135, %129
  store i32 0, ptr %5, align 4, !tbaa !4
  br label %139

139:                                              ; preds = %178, %138
  %140 = load i32, ptr %5, align 4, !tbaa !4
  %141 = icmp slt i32 %140, 2
  br i1 %141, label %142, label %181

142:                                              ; preds = %139
  %143 = load ptr, ptr %3, align 8, !tbaa !63
  %144 = getelementptr inbounds nuw %struct._pdo_dbh_t, ptr %143, i32 0, i32 14
  %145 = load i32, ptr %5, align 4, !tbaa !4
  %146 = sext i32 %145 to i64
  %147 = getelementptr inbounds [2 x ptr], ptr %144, i64 0, i64 %146
  %148 = load ptr, ptr %147, align 8, !tbaa !11
  %149 = icmp ne ptr %148, null
  br i1 %149, label %150, label %177

150:                                              ; preds = %142
  %151 = load ptr, ptr %3, align 8, !tbaa !63
  %152 = getelementptr inbounds nuw %struct._pdo_dbh_t, ptr %151, i32 0, i32 14
  %153 = load i32, ptr %5, align 4, !tbaa !4
  %154 = sext i32 %153 to i64
  %155 = getelementptr inbounds [2 x ptr], ptr %152, i64 0, i64 %154
  %156 = load ptr, ptr %155, align 8, !tbaa !11
  call void @zend_hash_destroy(ptr noundef %156)
  %157 = load ptr, ptr %3, align 8, !tbaa !63
  %158 = getelementptr inbounds nuw %struct._pdo_dbh_t, ptr %157, i32 0, i32 4
  %159 = load i32, ptr %158, align 8
  %160 = and i32 %159, 1
  %161 = icmp ne i32 %160, 0
  br i1 %161, label %162, label %169

162:                                              ; preds = %150
  %163 = load ptr, ptr %3, align 8, !tbaa !63
  %164 = getelementptr inbounds nuw %struct._pdo_dbh_t, ptr %163, i32 0, i32 14
  %165 = load i32, ptr %5, align 4, !tbaa !4
  %166 = sext i32 %165 to i64
  %167 = getelementptr inbounds [2 x ptr], ptr %164, i64 0, i64 %166
  %168 = load ptr, ptr %167, align 8, !tbaa !11
  call void @free(ptr noundef %168) #14
  br label %176

169:                                              ; preds = %150
  %170 = load ptr, ptr %3, align 8, !tbaa !63
  %171 = getelementptr inbounds nuw %struct._pdo_dbh_t, ptr %170, i32 0, i32 14
  %172 = load i32, ptr %5, align 4, !tbaa !4
  %173 = sext i32 %172 to i64
  %174 = getelementptr inbounds [2 x ptr], ptr %171, i64 0, i64 %173
  %175 = load ptr, ptr %174, align 8, !tbaa !11
  call void @_efree(ptr noundef %175)
  br label %176

176:                                              ; preds = %169, %162
  br label %177

177:                                              ; preds = %176, %142
  br label %178

178:                                              ; preds = %177
  %179 = load i32, ptr %5, align 4, !tbaa !4
  %180 = add nsw i32 %179, 1
  store i32 %180, ptr %5, align 4, !tbaa !4
  br label %139

181:                                              ; preds = %139
  %182 = load ptr, ptr %3, align 8, !tbaa !63
  %183 = getelementptr inbounds nuw %struct._pdo_dbh_t, ptr %182, i32 0, i32 4
  %184 = load i32, ptr %183, align 8
  %185 = and i32 %184, 1
  %186 = icmp ne i32 %185, 0
  br i1 %186, label %187, label %189

187:                                              ; preds = %181
  %188 = load ptr, ptr %3, align 8, !tbaa !63
  call void @free(ptr noundef %188) #14
  br label %191

189:                                              ; preds = %181
  %190 = load ptr, ptr %3, align 8, !tbaa !63
  call void @_efree(ptr noundef %190)
  br label %191

191:                                              ; preds = %189, %187
  store i32 0, ptr %6, align 4
  br label %192

192:                                              ; preds = %191, %35
  call void @llvm.lifetime.end.p0(i64 4, ptr %5) #14
  %193 = load i32, ptr %6, align 4
  switch i32 %193, label %195 [
    i32 0, label %194
    i32 1, label %194
  ]

194:                                              ; preds = %192, %192
  ret void

195:                                              ; preds = %192
  unreachable
}