; Function Attrs: nounwind uwtable
define internal fastcc void @dbh_free(ptr noundef nonnull %0, i1 noundef zeroext %1) unnamed_addr #0 {
  %3 = getelementptr inbounds nuw i8, ptr %0, i64 152
  %4 = load ptr, ptr %3, align 8, !tbaa !117
  %.not = icmp eq ptr %4, null
  br i1 %.not, label %19, label %5

5:                                                ; preds = %2
  %6 = getelementptr inbounds nuw i8, ptr %0, i64 160
  %7 = load ptr, ptr %6, align 8, !tbaa !118
  %8 = load i32, ptr %7, align 4, !tbaa !7
  %9 = icmp ne i32 %8, 0
  tail call void @llvm.assume(i1 %9)
  %10 = add i32 %8, -1
  store i32 %10, ptr %7, align 4, !tbaa !7
  %11 = icmp eq i32 %10, 0
  br i1 %11, label %12, label %13

12:                                               ; preds = %5
  tail call void @zend_objects_store_del(ptr noundef nonnull %7) #13
  br label %zend_object_release.exit

13:                                               ; preds = %5
  %14 = getelementptr inbounds nuw i8, ptr %7, i64 4
  %15 = load i32, ptr %14, align 4, !tbaa !4
  %16 = and i32 %15, -1008
  %17 = icmp eq i32 %16, 0
  br i1 %17, label %18, label %zend_object_release.exit, !prof !68

18:                                               ; preds = %13
  tail call void @gc_possible_root(ptr noundef nonnull %7) #13
  br label %zend_object_release.exit

zend_object_release.exit:                         ; preds = %12, %13, %18
  tail call void @llvm.memset.p0.i64(ptr noundef nonnull align 8 dereferenceable(16) %3, i8 0, i64 16, i1 false)
  br label %19

19:                                               ; preds = %zend_object_release.exit, %2
  %20 = getelementptr inbounds nuw i8, ptr %0, i64 32
  %21 = load i32, ptr %20, align 8
  %22 = and i32 %21, 1
  %.not47 = icmp eq i32 %22, 0
  %brmerge = or i1 %1, %.not47
  br i1 %brmerge, label %27, label %23

23:                                               ; preds = %19
  %24 = getelementptr inbounds nuw i8, ptr %0, i64 96
  %25 = load i32, ptr %24, align 8, !tbaa !96
  %26 = add i32 %25, -1
  store i32 %26, ptr %24, align 8, !tbaa !96
  %.not48 = icmp eq i32 %26, 0
  br i1 %.not48, label %27, label %87

27:                                               ; preds = %19, %23
  %28 = load ptr, ptr %0, align 8, !tbaa !59
  %.not49 = icmp eq ptr %28, null
  br i1 %.not49, label %31, label %29

29:                                               ; preds = %27
  %30 = load ptr, ptr %28, align 8, !tbaa !199
  tail call void %30(ptr noundef nonnull %0) #13
  br label %31

31:                                               ; preds = %29, %27
  %32 = getelementptr inbounds nuw i8, ptr %0, i64 40
  %33 = load ptr, ptr %32, align 8, !tbaa !101
  %.not50 = icmp eq ptr %33, null
  br i1 %.not50, label %39, label %34

34:                                               ; preds = %31
  %35 = load i32, ptr %20, align 8
  %36 = and i32 %35, 1
  %.not51 = icmp eq i32 %36, 0
  br i1 %.not51, label %38, label %37

37:                                               ; preds = %34
  tail call void @free(ptr noundef nonnull %33) #13
  br label %39

38:                                               ; preds = %34
  tail call void @_efree(ptr noundef nonnull %33) #13
  br label %39

39:                                               ; preds = %37, %38, %31
  %40 = getelementptr inbounds nuw i8, ptr %0, i64 16
  %41 = load ptr, ptr %40, align 8, !tbaa !102
  %.not52 = icmp eq ptr %41, null
  br i1 %.not52, label %47, label %42

42:                                               ; preds = %39
  %43 = load i32, ptr %20, align 8
  %44 = and i32 %43, 1
  %.not53 = icmp eq i32 %44, 0
  br i1 %.not53, label %46, label %45

45:                                               ; preds = %42
  tail call void @free(ptr noundef nonnull %41) #13
  br label %47

46:                                               ; preds = %42
  tail call void @_efree(ptr noundef nonnull %41) #13
  br label %47

47:                                               ; preds = %45, %46, %39
  %48 = getelementptr inbounds nuw i8, ptr %0, i64 24
  %49 = load ptr, ptr %48, align 8, !tbaa !103
  %.not54 = icmp eq ptr %49, null
  br i1 %.not54, label %55, label %50

50:                                               ; preds = %47
  %51 = load i32, ptr %20, align 8
  %52 = and i32 %51, 1
  %.not55 = icmp eq i32 %52, 0
  br i1 %.not55, label %54, label %53

53:                                               ; preds = %50
  tail call void @free(ptr noundef nonnull %49) #13
  br label %55

54:                                               ; preds = %50
  tail call void @_efree(ptr noundef nonnull %49) #13
  br label %55

55:                                               ; preds = %53, %54, %47
  %56 = getelementptr inbounds nuw i8, ptr %0, i64 80
  %57 = load ptr, ptr %56, align 8, !tbaa !97
  %.not56 = icmp eq ptr %57, null
  br i1 %.not56, label %63, label %58

58:                                               ; preds = %55
  %59 = load i32, ptr %20, align 8
  %60 = and i32 %59, 1
  %.not57 = icmp eq i32 %60, 0
  br i1 %.not57, label %62, label %61

61:                                               ; preds = %58
  tail call void @free(ptr noundef nonnull %57) #13
  br label %63

62:                                               ; preds = %58
  tail call void @_efree(ptr noundef nonnull %57) #13
  br label %63

63:                                               ; preds = %61, %62, %55
  %64 = getelementptr inbounds nuw i8, ptr %0, i64 144
  %65 = load i8, ptr %64, align 8, !tbaa !4
  %66 = icmp eq i8 %65, 0
  br i1 %66, label %69, label %67

67:                                               ; preds = %63
  %68 = getelementptr inbounds nuw i8, ptr %0, i64 136
  tail call void @zval_ptr_dtor(ptr noundef nonnull %68) #13
  br label %69

69:                                               ; preds = %67, %63
  %70 = getelementptr inbounds nuw i8, ptr %0, i64 104
  br label %71

71:                                               ; preds = %69, %81
  %72 = phi i1 [ true, %69 ], [ false, %81 ]
  %indvars.iv = phi i64 [ 0, %69 ], [ 1, %81 ]
  %73 = getelementptr inbounds nuw [2 x ptr], ptr %70, i64 0, i64 %indvars.iv
  %74 = load ptr, ptr %73, align 8, !tbaa !147
  %.not59 = icmp eq ptr %74, null
  br i1 %.not59, label %81, label %75

75:                                               ; preds = %71
  tail call void @zend_hash_destroy(ptr noundef nonnull %74) #13
  %76 = load i32, ptr %20, align 8
  %77 = and i32 %76, 1
  %.not60 = icmp eq i32 %77, 0
  %78 = load ptr, ptr %73, align 8, !tbaa !147
  br i1 %.not60, label %80, label %79

79:                                               ; preds = %75
  tail call void @free(ptr noundef %78) #13
  br label %81

80:                                               ; preds = %75
  tail call void @_efree(ptr noundef %78) #13
  br label %81

81:                                               ; preds = %71, %80, %79
  br i1 %72, label %71, label %82

82:                                               ; preds = %81
  %83 = load i32, ptr %20, align 8
  %84 = and i32 %83, 1
  %.not58 = icmp eq i32 %84, 0
  br i1 %.not58, label %86, label %85

85:                                               ; preds = %82
  tail call void @free(ptr noundef nonnull %0) #13
  br label %87

86:                                               ; preds = %82
  tail call void @_efree(ptr noundef nonnull %0) #13
  br label %87

87:                                               ; preds = %85, %86, %23
  ret void
}